; Function Attrs: mustprogress uwtable
define dso_local void @_Z12readCommentsPKcRNSt7__cxx1112basic_stringIcSt11char_traitsIcESaIcEEE(ptr noundef %0, ptr noundef nonnull align 8 dereferenceable(32) %1) local_unnamed_addr #8 personality ptr @__gxx_personality_v0 {
  %3 = alloca %"class.Imf_3_4::RgbaInputFile", align 8
  call void @llvm.lifetime.start.p0(i64 64, ptr nonnull %3) #36
  %4 = tail call noundef i32 @_ZN7Imf_3_417globalThreadCountEv()
  call void @_ZN7Imf_3_413RgbaInputFileC1EPKci(ptr noundef nonnull align 8 dereferenceable(64) %3, ptr noundef %0, i32 noundef %4)
  %5 = invoke noundef nonnull align 8 dereferenceable(49) ptr @_ZNK7Imf_3_413RgbaInputFile6headerEv(ptr noundef nonnull align 8 dereferenceable(64) %3)
          to label %6 unwind label %16

6:                                                ; preds = %2
  %7 = invoke noundef nonnull align 8 dereferenceable(8) ptr @_ZNK7Imf_3_46HeaderixEPKc(ptr noundef nonnull align 8 dereferenceable(49) %5, ptr noundef nonnull @.str.19)
          to label %.noexc unwind label %16

.noexc:                                           ; preds = %6
  %8 = call ptr @__dynamic_cast(ptr nonnull %7, ptr nonnull @_ZTIN7Imf_3_49AttributeE, ptr nonnull @_ZTIN7Imf_3_414TypedAttributeINSt7__cxx1112basic_stringIcSt11char_traitsIcESaIcEEEEE, i64 0) #36
  %9 = icmp eq ptr %8, null
  br i1 %9, label %10, label %_ZNK7Imf_3_46Header14typedAttributeINS_14TypedAttributeINSt7__cxx1112basic_stringIcSt11char_traitsIcESaIcEEEEEEERKT_PKc.exit

10:                                               ; preds = %.noexc
  %11 = call ptr @__cxa_allocate_exception(i64 72) #36
  invoke void @_ZN7Iex_3_47TypeExcC1EPKc(ptr noundef nonnull align 8 dereferenceable(72) %11, ptr noundef nonnull @.str.34)
          to label %12 unwind label %13

12:                                               ; preds = %10
  invoke void @__cxa_throw(ptr nonnull %11, ptr nonnull @_ZTIN7Iex_3_47TypeExcE, ptr nonnull @_ZN7Iex_3_47TypeExcD1Ev) #37
          to label %.noexc3 unwind label %16

.noexc3:                                          ; preds = %12
  unreachable

13:                                               ; preds = %10
  %14 = landingpad { ptr, i32 }
          cleanup
  call void @__cxa_free_exception(ptr nonnull %11) #36
  br label %.body

_ZNK7Imf_3_46Header14typedAttributeINS_14TypedAttributeINSt7__cxx1112basic_stringIcSt11char_traitsIcESaIcEEEEEEERKT_PKc.exit: ; preds = %.noexc
  %15 = getelementptr inbounds nuw i8, ptr %8, i64 8
  invoke void @_ZNSt7__cxx1112basic_stringIcSt11char_traitsIcESaIcEE9_M_assignERKS4_(ptr noundef nonnull align 8 dereferenceable(32) %1, ptr noundef nonnull align 8 dereferenceable(32) %15)
          to label %_ZNSt7__cxx1112basic_stringIcSt11char_traitsIcESaIcEEaSERKS4_.exit unwind label %16

_ZNSt7__cxx1112basic_stringIcSt11char_traitsIcESaIcEEaSERKS4_.exit: ; preds = %_ZNK7Imf_3_46Header14typedAttributeINS_14TypedAttributeINSt7__cxx1112basic_stringIcSt11char_traitsIcESaIcEEEEEEERKT_PKc.exit
  call void @_ZN7Imf_3_413RgbaInputFileD1Ev(ptr noundef nonnull align 8 dereferenceable(64) %3) #36
  call void @llvm.lifetime.end.p0(i64 64, ptr nonnull %3) #36
  ret void

16:                                               ; preds = %_ZNK7Imf_3_46Header14typedAttributeINS_14TypedAttributeINSt7__cxx1112basic_stringIcSt11char_traitsIcESaIcEEEEEEERKT_PKc.exit, %12, %6, %2
  %17 = landingpad { ptr, i32 }
          cleanup
  br label %.body

.body:                                            ; preds = %13, %16
  %eh.lpad-body = phi { ptr, i32 } [ %17, %16 ], [ %14, %13 ]
  call void @_ZN7Imf_3_413RgbaInputFileD1Ev(ptr noundef nonnull align 8 dereferenceable(64) %3) #36
  call void @llvm.lifetime.end.p0(i64 64, ptr nonnull %3) #36
  resume { ptr, i32 } %eh.lpad-body
}